target datalayout = "e-m:e-p270:32:32-p271:32:32-p272:64:64-i64:64-i128:128-f80:128-n8:16:32:64-S128"
target triple = "x86_64-pc-linux-gnu"

%struct.Vec_Bit_t_ = type { i32, i32, ptr }

; Function Attrs: nounwind uwtable
define internal void @Vec_BitGrow(ptr noundef %0, i32 noundef %1) #0 {
  %3 = alloca ptr, align 8
  %4 = alloca i32, align 4
  store ptr %0, ptr %3, align 8
  store i32 %1, ptr %4, align 4
  %5 = load ptr, ptr %3, align 8
  %6 = getelementptr inbounds %struct.Vec_Bit_t_, ptr %5, i32 0, i32 0
  %7 = load i32, ptr %6, align 8
  %8 = load i32, ptr %4, align 4
  %9 = icmp sge i32 %7, %8
  br i1 %9, label %10, label %11

10:                                               ; preds = %2
  br label %44

11:                                               ; preds = %2
  %12 = load i32, ptr %4, align 4
  %13 = ashr i32 %12, 5
  %14 = load i32, ptr %4, align 4
  %15 = and i32 %14, 31
  %16 = icmp sgt i32 %15, 0
  %17 = zext i1 %16 to i32
  %18 = add nsw i32 %13, %17
  store i32 %18, ptr %4, align 4
  %19 = load ptr, ptr %3, align 8
  %20 = getelementptr inbounds %struct.Vec_Bit_t_, ptr %19, i32 0, i32 2
  %21 = load ptr, ptr %20, align 8
  %22 = icmp ne ptr %21, null
  br i1 %22, label %23, label %31

23:                                               ; preds = %11
  %24 = load ptr, ptr %3, align 8
  %25 = getelementptr inbounds %struct.Vec_Bit_t_, ptr %24, i32 0, i32 2
  %26 = load ptr, ptr %25, align 8
  %27 = load i32, ptr %4, align 4
  %28 = sext i32 %27 to i64
  %29 = mul i64 4, %28
  %30 = call ptr @realloc(ptr noundef %26, i64 noundef %29) #14
  br label %36

31:                                               ; preds = %11
  %32 = load i32, ptr %4, align 4
  %33 = sext i32 %32 to i64
  %34 = mul i64 4, %33
  %35 = call noalias ptr @malloc(i64 noundef %34) #11
  br label %36

36:                                               ; preds = %31, %23
  %37 = phi ptr [ %30, %23 ], [ %35, %31 ]
  %38 = load ptr, ptr %3, align 8
  %39 = getelementptr inbounds %struct.Vec_Bit_t_, ptr %38, i32 0, i32 2
  store ptr %37, ptr %39, align 8
  %40 = load i32, ptr %4, align 4
  %41 = mul nsw i32 %40, 32
  %42 = load ptr, ptr %3, align 8
  %43 = getelementptr inbounds %struct.Vec_Bit_t_, ptr %42, i32 0, i32 0
  store i32 %41, ptr %43, align 8
  br label %44

44:                                               ; preds = %36, %10
  ret void
}

; Function Attrs: nounwind uwtable
define internal void @Vec_BitWriteEntry(ptr noundef %0, i32 noundef %1, i32 noundef %2) #0 {
  %4 = alloca ptr, align 8
  %5 = alloca i32, align 4
  %6 = alloca i32, align 4
  store ptr %0, ptr %4, align 8
  store i32 %1, ptr %5, align 4
  store i32 %2, ptr %6, align 4
  %7 = load i32, ptr %6, align 4
  %8 = icmp eq i32 %7, 1
  br i1 %8, label %9, label %22

9:                                                ; preds = %3
  %10 = load i32, ptr %5, align 4
  %11 = and i32 %10, 31
  %12 = shl i32 1, %11
  %13 = load ptr, ptr %4, align 8
  %14 = getelementptr inbounds %struct.Vec_Bit_t_, ptr %13, i32 0, i32 2
  %15 = load ptr, ptr %14, align 8
  %16 = load i32, ptr %5, align 4
  %17 = ashr i32 %16, 5
  %18 = sext i32 %17 to i64
  %19 = getelementptr inbounds i32, ptr %15, i64 %18
  %20 = load i32, ptr %19, align 4
  %21 = or i32 %20, %12
  store i32 %21, ptr %19, align 4
  br label %41

22:                                               ; preds = %3
  %23 = load i32, ptr %6, align 4
  %24 = icmp eq i32 %23, 0
  br i1 %24, label %25, label %39

25:                                               ; preds = %22
  %26 = load i32, ptr %5, align 4
  %27 = and i32 %26, 31
  %28 = shl i32 1, %27
  %29 = xor i32 %28, -1
  %30 = load ptr, ptr %4, align 8
  %31 = getelementptr inbounds %struct.Vec_Bit_t_, ptr %30, i32 0, i32 2
  %32 = load ptr, ptr %31, align 8
  %33 = load i32, ptr %5, align 4
  %34 = ashr i32 %33, 5
  %35 = sext i32 %34 to i64
  %36 = getelementptr inbounds i32, ptr %32, i64 %35
  %37 = load i32, ptr %36, align 4
  %38 = and i32 %37, %29
  store i32 %38, ptr %36, align 4
  br label %40

39:                                               ; preds = %22
  br label %40

40:                                               ; preds = %39, %25
  br label %41

41:                                               ; preds = %40, %9
  ret void
}

; Function Attrs: nounwind uwtable
define internal void @Vec_BitFillExtra(ptr noundef %0, i32 noundef %1, i32 noundef %2) #0 {
  %4 = alloca ptr, align 8
  %5 = alloca i32, align 4
  %6 = alloca i32, align 4
  %7 = alloca i32, align 4
  %8 = alloca i32, align 4
  %9 = alloca i32, align 4
  %10 = alloca i32, align 4
  %11 = alloca i32, align 4
  %12 = alloca i32, align 4
  store ptr %0, ptr %4, align 8
  store i32 %1, ptr %5, align 4
  store i32 %2, ptr %6, align 4
  %13 = load i32, ptr %5, align 4
  %14 = load ptr, ptr %4, align 8
  %15 = getelementptr inbounds %struct.Vec_Bit_t_, ptr %14, i32 0, i32 1
  %16 = load i32, ptr %15, align 4
  %17 = icmp sle i32 %13, %16
  br i1 %17, label %18, label %19

18:                                               ; preds = %3
  br label %211

19:                                               ; preds = %3
  %20 = load i32, ptr %5, align 4
  %21 = load ptr, ptr %4, align 8
  %22 = getelementptr inbounds %struct.Vec_Bit_t_, ptr %21, i32 0, i32 0
  %23 = load i32, ptr %22, align 8
  %24 = mul nsw i32 2, %23
  %25 = icmp sgt i32 %20, %24
  br i1 %25, label %26, label %29

26:                                               ; preds = %19
  %27 = load ptr, ptr %4, align 8
  %28 = load i32, ptr %5, align 4
  call void @Vec_BitGrow(ptr noundef %27, i32 noundef %28)
  br label %42

29:                                               ; preds = %19
  %30 = load i32, ptr %5, align 4
  %31 = load ptr, ptr %4, align 8
  %32 = getelementptr inbounds %struct.Vec_Bit_t_, ptr %31, i32 0, i32 0
  %33 = load i32, ptr %32, align 8
  %34 = icmp sgt i32 %30, %33
  br i1 %34, label %35, label %41

35:                                               ; preds = %29
  %36 = load ptr, ptr %4, align 8
  %37 = load ptr, ptr %4, align 8
  %38 = getelementptr inbounds %struct.Vec_Bit_t_, ptr %37, i32 0, i32 0
  %39 = load i32, ptr %38, align 8
  %40 = mul nsw i32 2, %39
  call void @Vec_BitGrow(ptr noundef %36, i32 noundef %40)
  br label %41

41:                                               ; preds = %35, %29
  br label %42

42:                                               ; preds = %41, %26
  %43 = load ptr, ptr %4, align 8
  %44 = getelementptr inbounds %struct.Vec_Bit_t_, ptr %43, i32 0, i32 1
  %45 = load i32, ptr %44, align 4
  %46 = ashr i32 %45, 5
  %47 = load i32, ptr %5, align 4
  %48 = ashr i32 %47, 5
  %49 = icmp eq i32 %46, %48
  br i1 %49, label %50, label %93

50:                                               ; preds = %42
  %51 = load i32, ptr %5, align 4
  %52 = load ptr, ptr %4, align 8
  %53 = getelementptr inbounds %struct.Vec_Bit_t_, ptr %52, i32 0, i32 1
  %54 = load i32, ptr %53, align 4
  %55 = sub nsw i32 %51, %54
  %56 = shl i32 -1, %55
  %57 = xor i32 %56, -1
  %58 = load ptr, ptr %4, align 8
  %59 = getelementptr inbounds %struct.Vec_Bit_t_, ptr %58, i32 0, i32 1
  %60 = load i32, ptr %59, align 4
  %61 = shl i32 %57, %60
  store i32 %61, ptr %8, align 4
  %62 = load i32, ptr %6, align 4
  %63 = icmp eq i32 %62, 1
  br i1 %63, label %64, label %75

64:                                               ; preds = %50
  %65 = load i32, ptr %8, align 4
  %66 = load ptr, ptr %4, align 8
  %67 = getelementptr inbounds %struct.Vec_Bit_t_, ptr %66, i32 0, i32 2
  %68 = load ptr, ptr %67, align 8
  %69 = load i32, ptr %5, align 4
  %70 = ashr i32 %69, 5
  %71 = sext i32 %70 to i64
  %72 = getelementptr inbounds i32, ptr %68, i64 %71
  %73 = load i32, ptr %72, align 4
  %74 = or i32 %73, %65
  store i32 %74, ptr %72, align 4
  br label %92

75:                                               ; preds = %50
  %76 = load i32, ptr %6, align 4
  %77 = icmp eq i32 %76, 0
  br i1 %77, label %78, label %90

78:                                               ; preds = %75
  %79 = load i32, ptr %8, align 4
  %80 = xor i32 %79, -1
  %81 = load ptr, ptr %4, align 8
  %82 = getelementptr inbounds %struct.Vec_Bit_t_, ptr %81, i32 0, i32 2
  %83 = load ptr, ptr %82, align 8
  %84 = load i32, ptr %5, align 4
  %85 = ashr i32 %84, 5
  %86 = sext i32 %85 to i64
  %87 = getelementptr inbounds i32, ptr %83, i64 %86
  %88 = load i32, ptr %87, align 4
  %89 = and i32 %88, %80
  store i32 %89, ptr %87, align 4
  br label %91

90:                                               ; preds = %75
  br label %91

91:                                               ; preds = %90, %78
  br label %92

92:                                               ; preds = %91, %64
  br label %207

93:                                               ; preds = %42
  %94 = load ptr, ptr %4, align 8
  %95 = getelementptr inbounds %struct.Vec_Bit_t_, ptr %94, i32 0, i32 1
  %96 = load i32, ptr %95, align 4
  %97 = and i32 %96, 31
  %98 = icmp ne i32 %97, 0
  br i1 %98, label %99, label %105

99:                                               ; preds = %93
  %100 = load ptr, ptr %4, align 8
  %101 = getelementptr inbounds %struct.Vec_Bit_t_, ptr %100, i32 0, i32 1
  %102 = load i32, ptr %101, align 4
  %103 = and i32 %102, 31
  %104 = shl i32 -1, %103
  br label %106

105:                                              ; preds = %93
  br label %106

106:                                              ; preds = %105, %99
  %107 = phi i32 [ %104, %99 ], [ 0, %105 ]
  store i32 %107, ptr %9, align 4
  %108 = load i32, ptr %5, align 4
  %109 = and i32 %108, 31
  %110 = icmp ne i32 %109, 0
  br i1 %110, label %111, label %116

111:                                              ; preds = %106
  %112 = load i32, ptr %5, align 4
  %113 = and i32 %112, 31
  %114 = shl i32 -1, %113
  %115 = xor i32 %114, -1
  br label %117

116:                                              ; preds = %106
  br label %117

117:                                              ; preds = %116, %111
  %118 = phi i32 [ %115, %111 ], [ 0, %116 ]
  store i32 %118, ptr %10, align 4
  %119 = load ptr, ptr %4, align 8
  %120 = getelementptr inbounds %struct.Vec_Bit_t_, ptr %119, i32 0, i32 1
  %121 = load i32, ptr %120, align 4
  %122 = ashr i32 %121, 5
  store i32 %122, ptr %11, align 4
  %123 = load i32, ptr %5, align 4
  %124 = ashr i32 %123, 5
  store i32 %124, ptr %12, align 4
  %125 = load i32, ptr %6, align 4
  %126 = icmp eq i32 %125, 1
  br i1 %126, label %127, label %163

127:                                              ; preds = %117
  %128 = load i32, ptr %9, align 4
  %129 = load ptr, ptr %4, align 8
  %130 = getelementptr inbounds %struct.Vec_Bit_t_, ptr %129, i32 0, i32 2
  %131 = load ptr, ptr %130, align 8
  %132 = load i32, ptr %11, align 4
  %133 = sext i32 %132 to i64
  %134 = getelementptr inbounds i32, ptr %131, i64 %133
  %135 = load i32, ptr %134, align 4
  %136 = or i32 %135, %128
  store i32 %136, ptr %134, align 4
  %137 = load i32, ptr %10, align 4
  %138 = load ptr, ptr %4, align 8
  %139 = getelementptr inbounds %struct.Vec_Bit_t_, ptr %138, i32 0, i32 2
  %140 = load ptr, ptr %139, align 8
  %141 = load i32, ptr %12, align 4
  %142 = sext i32 %141 to i64
  %143 = getelementptr inbounds i32, ptr %140, i64 %142
  %144 = load i32, ptr %143, align 4
  %145 = or i32 %144, %137
  store i32 %145, ptr %143, align 4
  %146 = load i32, ptr %11, align 4
  %147 = add nsw i32 %146, 1
  store i32 %147, ptr %7, align 4
  br label %148

148:                                              ; preds = %159, %127
  %149 = load i32, ptr %7, align 4
  %150 = load i32, ptr %12, align 4
  %151 = icmp slt i32 %149, %150
  br i1 %151, label %152, label %162

152:                                              ; preds = %148
  %153 = load ptr, ptr %4, align 8
  %154 = getelementptr inbounds %struct.Vec_Bit_t_, ptr %153, i32 0, i32 2
  %155 = load ptr, ptr %154, align 8
  %156 = load i32, ptr %7, align 4
  %157 = sext i32 %156 to i64
  %158 = getelementptr inbounds i32, ptr %155, i64 %157
  store i32 -1, ptr %158, align 4
  br label %159

159:                                              ; preds = %152
  %160 = load i32, ptr %7, align 4
  %161 = add nsw i32 %160, 1
  store i32 %161, ptr %7, align 4
  br label %148, !llvm.loop !70

162:                                              ; preds = %148
  br label %206

163:                                              ; preds = %117
  %164 = load i32, ptr %6, align 4
  %165 = icmp eq i32 %164, 0
  br i1 %165, label %166, label %204

166:                                              ; preds = %163
  %167 = load i32, ptr %9, align 4
  %168 = xor i32 %167, -1
  %169 = load ptr, ptr %4, align 8
  %170 = getelementptr inbounds %struct.Vec_Bit_t_, ptr %169, i32 0, i32 2
  %171 = load ptr, ptr %170, align 8
  %172 = load i32, ptr %11, align 4
  %173 = sext i32 %172 to i64
  %174 = getelementptr inbounds i32, ptr %171, i64 %173
  %175 = load i32, ptr %174, align 4
  %176 = and i32 %175, %168
  store i32 %176, ptr %174, align 4
  %177 = load i32, ptr %10, align 4
  %178 = xor i32 %177, -1
  %179 = load ptr, ptr %4, align 8
  %180 = getelementptr inbounds %struct.Vec_Bit_t_, ptr %179, i32 0, i32 2
  %181 = load ptr, ptr %180, align 8
  %182 = load i32, ptr %12, align 4
  %183 = sext i32 %182 to i64
  %184 = getelementptr inbounds i32, ptr %181, i64 %183
  %185 = load i32, ptr %184, align 4
  %186 = and i32 %185, %178
  store i32 %186, ptr %184, align 4
  %187 = load i32, ptr %11, align 4
  %188 = add nsw i32 %187, 1
  store i32 %188, ptr %7, align 4
  br label %189

189:                                              ; preds = %200, %166
  %190 = load i32, ptr %7, align 4
  %191 = load i32, ptr %12, align 4
  %192 = icmp slt i32 %190, %191
  br i1 %192, label %193, label %203

193:                                              ; preds = %189
  %194 = load ptr, ptr %4, align 8
  %195 = getelementptr inbounds %struct.Vec_Bit_t_, ptr %194, i32 0, i32 2
  %196 = load ptr, ptr %195, align 8
  %197 = load i32, ptr %7, align 4
  %198 = sext i32 %197 to i64
  %199 = getelementptr inbounds i32, ptr %196, i64 %198
  store i32 0, ptr %199, align 4
  br label %200

200:                                              ; preds = %193
  %201 = load i32, ptr %7, align 4
  %202 = add nsw i32 %201, 1
  store i32 %202, ptr %7, align 4
  br label %189, !llvm.loop !71

203:                                              ; preds = %189
  br label %205

204:                                              ; preds = %163
  br label %205

205:                                              ; preds = %204, %203
  br label %206

206:                                              ; preds = %205, %162
  br label %207

207:                                              ; preds = %206, %92
  %208 = load i32, ptr %5, align 4
  %209 = load ptr, ptr %4, align 8
  %210 = getelementptr inbounds %struct.Vec_Bit_t_, ptr %209, i32 0, i32 1
  store i32 %208, ptr %210, align 4
  br label %211

211:                                              ; preds = %207, %18
  ret void
}

; Function Attrs: nounwind uwtable
define internal void @Vec_BitSetEntry(ptr noundef %0, i32 noundef %1, i32 noundef %2) #0 {
  %4 = alloca ptr, align 8
  %5 = alloca i32, align 4
  %6 = alloca i32, align 4
  store ptr %0, ptr %4, align 8
  store i32 %1, ptr %5, align 4
  store i32 %2, ptr %6, align 4
  %7 = load ptr, ptr %4, align 8
  %8 = load i32, ptr %5, align 4
  %9 = add nsw i32 %8, 1
  call void @Vec_BitFillExtra(ptr noundef %7, i32 noundef %9, i32 noundef 0)
  %10 = load ptr, ptr %4, align 8
  %11 = load i32, ptr %5, align 4
  %12 = load i32, ptr %6, align 4
  call void @Vec_BitWriteEntry(ptr noundef %10, i32 noundef %11, i32 noundef %12)
  ret void
}