; Function Attrs: nounwind uwtable
define internal fastcc void @Vec_BitSetEntry(ptr noundef captures(none) %0, i32 noundef %1, i32 noundef range(i32 0, 2) %2) unnamed_addr #1 {
  %4 = add nsw i32 %1, 1
  %5 = getelementptr inbounds nuw i8, ptr %0, i64 4
  %6 = load i32, ptr %5, align 4
  %.not.i.not = icmp slt i32 %1, %6
  br i1 %.not.i.not, label %Vec_BitFillExtra.exit, label %7

7:                                                ; preds = %3
  %8 = load i32, ptr %0, align 8
  %9 = shl nsw i32 %8, 1
  %.not = icmp slt i32 %1, %9
  %.not.i.i.not = icmp sgt i32 %8, %1
  br i1 %.not, label %27, label %10

10:                                               ; preds = %7
  br i1 %.not.i.i.not, label %Vec_BitGrow.exit.i, label %11

11:                                               ; preds = %10
  %12 = ashr i32 %4, 5
  %13 = and i32 %4, 31
  %14 = icmp ne i32 %13, 0
  %15 = zext i1 %14 to i32
  %16 = add nsw i32 %12, %15
  %17 = getelementptr inbounds nuw i8, ptr %0, i64 8
  %18 = load ptr, ptr %17, align 8
  %.not11.i.i = icmp eq ptr %18, null
  %19 = sext i32 %16 to i64
  %20 = shl nsw i64 %19, 2
  br i1 %.not11.i.i, label %23, label %21

21:                                               ; preds = %11
  %22 = tail call ptr @realloc(ptr noundef nonnull %18, i64 noundef %20) #19
  br label %25

23:                                               ; preds = %11
  %24 = tail call noalias ptr @malloc(i64 noundef %20) #18
  br label %25

25:                                               ; preds = %23, %21
  %26 = phi ptr [ %22, %21 ], [ %24, %23 ]
  store ptr %26, ptr %17, align 8
  br label %Vec_BitGrow.exit.sink.split.i

27:                                               ; preds = %7
  br i1 %.not.i.i.not, label %Vec_BitGrow.exit.i, label %28

28:                                               ; preds = %27
  %29 = ashr i32 %8, 4
  %30 = and i32 %8, 15
  %31 = icmp ne i32 %30, 0
  %32 = zext i1 %31 to i32
  %33 = add nsw i32 %29, %32
  %34 = getelementptr inbounds nuw i8, ptr %0, i64 8
  %35 = load ptr, ptr %34, align 8
  %.not11.i65.i = icmp eq ptr %35, null
  %36 = sext i32 %33 to i64
  %37 = shl nsw i64 %36, 2
  br i1 %.not11.i65.i, label %40, label %38

38:                                               ; preds = %28
  %39 = tail call ptr @realloc(ptr noundef nonnull %35, i64 noundef %37) #19
  br label %42

40:                                               ; preds = %28
  %41 = tail call noalias ptr @malloc(i64 noundef %37) #18
  br label %42

42:                                               ; preds = %40, %38
  %43 = phi ptr [ %39, %38 ], [ %41, %40 ]
  store ptr %43, ptr %34, align 8
  br label %Vec_BitGrow.exit.sink.split.i

Vec_BitGrow.exit.sink.split.i:                    ; preds = %42, %25
  %.sink70.i = phi i32 [ %33, %42 ], [ %16, %25 ]
  %44 = shl nsw i32 %.sink70.i, 5
  store i32 %44, ptr %0, align 8
  %.pre = load i32, ptr %5, align 4
  br label %Vec_BitGrow.exit.i

Vec_BitGrow.exit.i:                               ; preds = %Vec_BitGrow.exit.sink.split.i, %27, %10
  %45 = phi i32 [ %.pre, %Vec_BitGrow.exit.sink.split.i ], [ %6, %27 ], [ %6, %10 ]
  %46 = ashr i32 %45, 5
  %47 = ashr i32 %4, 5
  %48 = icmp eq i32 %46, %47
  br i1 %48, label %49, label %61

49:                                               ; preds = %Vec_BitGrow.exit.i
  %50 = sub nsw i32 %4, %45
  %51 = shl nsw i32 -1, %50
  %52 = xor i32 %51, -1
  %53 = shl i32 %52, %45
  %54 = xor i32 %53, -1
  %55 = getelementptr inbounds nuw i8, ptr %0, i64 8
  %56 = load ptr, ptr %55, align 8
  %57 = sext i32 %47 to i64
  %58 = getelementptr inbounds i32, ptr %56, i64 %57
  %59 = load i32, ptr %58, align 4
  %60 = and i32 %59, %54
  store i32 %60, ptr %58, align 4
  br label %.loopexit.i

61:                                               ; preds = %Vec_BitGrow.exit.i
  %62 = and i32 %45, 31
  %.not63.i = icmp eq i32 %62, 0
  %63 = shl nsw i32 -1, %62
  %64 = xor i32 %63, -1
  %65 = select i1 %.not63.i, i32 -1, i32 %64
  %66 = and i32 %4, 31
  %67 = shl nsw i32 -1, %66
  %68 = getelementptr inbounds nuw i8, ptr %0, i64 8
  %69 = load ptr, ptr %68, align 8
  %70 = sext i32 %46 to i64
  %71 = getelementptr inbounds i32, ptr %69, i64 %70
  %72 = load i32, ptr %71, align 4
  %73 = and i32 %72, %65
  store i32 %73, ptr %71, align 4
  %74 = load ptr, ptr %68, align 8
  %75 = sext i32 %47 to i64
  %76 = getelementptr inbounds i32, ptr %74, i64 %75
  %77 = load i32, ptr %76, align 4
  %78 = and i32 %77, %67
  store i32 %78, ptr %76, align 4
  %.167.i = add nsw i32 %46, 1
  %79 = icmp slt i32 %.167.i, %47
  br i1 %79, label %.lr.ph.preheader.i, label %.loopexit.i

.lr.ph.preheader.i:                               ; preds = %61
  %80 = add nsw i64 %70, 1
  br label %.lr.ph.i

.lr.ph.i:                                         ; preds = %.lr.ph.i, %.lr.ph.preheader.i
  %indvars.iv.i = phi i64 [ %80, %.lr.ph.preheader.i ], [ %indvars.iv.next.i, %.lr.ph.i ]
  %81 = load ptr, ptr %68, align 8
  %82 = getelementptr inbounds i32, ptr %81, i64 %indvars.iv.i
  store i32 0, ptr %82, align 4
  %indvars.iv.next.i = add nsw i64 %indvars.iv.i, 1
  %exitcond.not.i = icmp eq i64 %indvars.iv.next.i, %75
  br i1 %exitcond.not.i, label %.loopexit.i, label %.lr.ph.i, !llvm.loop !10

.loopexit.i:                                      ; preds = %.lr.ph.i, %61, %49
  store i32 %4, ptr %5, align 4
  br label %Vec_BitFillExtra.exit

Vec_BitFillExtra.exit:                            ; preds = %3, %.loopexit.i
  %.not.i4 = icmp eq i32 %2, 0
  %83 = and i32 %1, 31
  %84 = shl nuw i32 1, %83
  br i1 %.not.i4, label %93, label %85

85:                                               ; preds = %Vec_BitFillExtra.exit
  %86 = getelementptr inbounds nuw i8, ptr %0, i64 8
  %87 = load ptr, ptr %86, align 8
  %88 = ashr i32 %1, 5
  %89 = sext i32 %88 to i64
  %90 = getelementptr inbounds i32, ptr %87, i64 %89
  %91 = load i32, ptr %90, align 4
  %92 = or i32 %91, %84
  store i32 %92, ptr %90, align 4
  br label %Vec_BitWriteEntry.exit

93:                                               ; preds = %Vec_BitFillExtra.exit
  %94 = xor i32 %84, -1
  %95 = getelementptr inbounds nuw i8, ptr %0, i64 8
  %96 = load ptr, ptr %95, align 8
  %97 = ashr i32 %1, 5
  %98 = sext i32 %97 to i64
  %99 = getelementptr inbounds i32, ptr %96, i64 %98
  %100 = load i32, ptr %99, align 4
  %101 = and i32 %100, %94
  store i32 %101, ptr %99, align 4
  br label %Vec_BitWriteEntry.exit

Vec_BitWriteEntry.exit:                           ; preds = %85, %93
  ret void
}